; Function Attrs: mustprogress nounwind uwtable
define internal void @_ZN12_GLOBAL__N_116inproc_transportD2Ev(ptr noundef nonnull align 8 dereferenceable(144) %0) unnamed_addr #9 align 2 personality ptr @__gxx_personality_v0 {
  %2 = getelementptr inbounds nuw i8, ptr %0, i64 16
  %3 = load ptr, ptr %2, align 8, !tbaa !38
  %4 = getelementptr inbounds nuw i8, ptr %3, i64 8
  %5 = invoke i32 @gpr_unref(ptr noundef nonnull %4)
          to label %6 unwind label %15

6:                                                ; preds = %1
  %.not = icmp eq i32 %5, 0
  br i1 %.not, label %13, label %7

7:                                                ; preds = %6
  %8 = load ptr, ptr %2, align 8, !tbaa !38
  invoke void @gpr_mu_destroy(ptr noundef nonnull align 8 dereferenceable(16) %8)
          to label %_ZN12_GLOBAL__N_19shared_muD2Ev.exit unwind label %9

9:                                                ; preds = %7
  %10 = landingpad { ptr, i32 }
          catch ptr null
  %11 = extractvalue { ptr, i32 } %10, 0
  tail call void @__clang_call_terminate(ptr %11) #36
  unreachable

_ZN12_GLOBAL__N_19shared_muD2Ev.exit:             ; preds = %7
  %12 = load ptr, ptr %2, align 8, !tbaa !38
  invoke void @gpr_free(ptr noundef %12)
          to label %13 unwind label %15

13:                                               ; preds = %_ZN12_GLOBAL__N_19shared_muD2Ev.exit, %6
  %14 = getelementptr inbounds nuw i8, ptr %0, i64 40
  tail call void @_ZN9grpc_core24ConnectivityStateTrackerD1Ev(ptr noundef nonnull align 8 dereferenceable(56) %14) #32
  ret void

15:                                               ; preds = %_ZN12_GLOBAL__N_19shared_muD2Ev.exit, %1
  %16 = landingpad { ptr, i32 }
          catch ptr null
  %17 = extractvalue { ptr, i32 } %16, 0
  tail call void @__clang_call_terminate(ptr %17) #36
  unreachable
}